target datalayout = "e-m:e-p270:32:32-p271:32:32-p272:64:64-i64:64-i128:128-f80:128-n8:16:32:64-S128"
target triple = "x86_64-pc-linux-gnu"

%struct.FunctionCallInfoBaseData = type { ptr, ptr, ptr, i32, i8, i16, [0 x %struct.NullableDatum] }
%struct.NullableDatum = type { i64, i8 }
%struct.GISTENTRY = type { i64, ptr, ptr, i16, i8 }
%struct.GistInetKey = type { i8, i8, i8, i8, [16 x i8] }

; Function Attrs: inlinehint nounwind uwtable
define internal i64 @PointerGetDatum(ptr noundef %0) #2 {
  %2 = alloca ptr, align 8
  store ptr %0, ptr %2, align 8
  %3 = load ptr, ptr %2, align 8
  %4 = ptrtoint ptr %3 to i64
  ret i64 %4
}

; Function Attrs: inlinehint nounwind uwtable
define internal ptr @DatumGetPointer(i64 noundef %0) #2 {
  %2 = alloca i64, align 8
  store i64 %0, ptr %2, align 8
  %3 = load i64, ptr %2, align 8
  %4 = inttoptr i64 %3 to ptr
  ret ptr %4
}

; Function Attrs: nounwind uwtable
define dso_local i64 @inet_gist_penalty(ptr noundef %0) #0 {
  %2 = alloca ptr, align 8
  %3 = alloca ptr, align 8
  %4 = alloca ptr, align 8
  %5 = alloca ptr, align 8
  %6 = alloca ptr, align 8
  %7 = alloca ptr, align 8
  %8 = alloca i32, align 4
  store ptr %0, ptr %2, align 8
  call void @llvm.lifetime.start.p0(i64 8, ptr %3) #7
  %9 = load ptr, ptr %2, align 8
  %10 = getelementptr inbounds nuw %struct.FunctionCallInfoBaseData, ptr %9, i32 0, i32 6
  %11 = getelementptr inbounds [0 x %struct.NullableDatum], ptr %10, i64 0, i64 0
  %12 = getelementptr inbounds nuw %struct.NullableDatum, ptr %11, i32 0, i32 0
  %13 = load i64, ptr %12, align 8
  %14 = call ptr @DatumGetPointer(i64 noundef %13)
  store ptr %14, ptr %3, align 8
  call void @llvm.lifetime.start.p0(i64 8, ptr %4) #7
  %15 = load ptr, ptr %2, align 8
  %16 = getelementptr inbounds nuw %struct.FunctionCallInfoBaseData, ptr %15, i32 0, i32 6
  %17 = getelementptr inbounds [0 x %struct.NullableDatum], ptr %16, i64 0, i64 1
  %18 = getelementptr inbounds nuw %struct.NullableDatum, ptr %17, i32 0, i32 0
  %19 = load i64, ptr %18, align 8
  %20 = call ptr @DatumGetPointer(i64 noundef %19)
  store ptr %20, ptr %4, align 8
  call void @llvm.lifetime.start.p0(i64 8, ptr %5) #7
  %21 = load ptr, ptr %2, align 8
  %22 = getelementptr inbounds nuw %struct.FunctionCallInfoBaseData, ptr %21, i32 0, i32 6
  %23 = getelementptr inbounds [0 x %struct.NullableDatum], ptr %22, i64 0, i64 2
  %24 = getelementptr inbounds nuw %struct.NullableDatum, ptr %23, i32 0, i32 0
  %25 = load i64, ptr %24, align 8
  %26 = call ptr @DatumGetPointer(i64 noundef %25)
  store ptr %26, ptr %5, align 8
  call void @llvm.lifetime.start.p0(i64 8, ptr %6) #7
  %27 = load ptr, ptr %3, align 8
  %28 = getelementptr inbounds nuw %struct.GISTENTRY, ptr %27, i32 0, i32 0
  %29 = load i64, ptr %28, align 8
  %30 = call ptr @DatumGetPointer(i64 noundef %29)
  store ptr %30, ptr %6, align 8
  call void @llvm.lifetime.start.p0(i64 8, ptr %7) #7
  %31 = load ptr, ptr %4, align 8
  %32 = getelementptr inbounds nuw %struct.GISTENTRY, ptr %31, i32 0, i32 0
  %33 = load i64, ptr %32, align 8
  %34 = call ptr @DatumGetPointer(i64 noundef %33)
  store ptr %34, ptr %7, align 8
  call void @llvm.lifetime.start.p0(i64 4, ptr %8) #7
  %35 = load ptr, ptr %6, align 8
  %36 = getelementptr inbounds nuw %struct.GistInetKey, ptr %35, i32 0, i32 1
  %37 = load i8, ptr %36, align 1
  %38 = zext i8 %37 to i32
  %39 = load ptr, ptr %7, align 8
  %40 = getelementptr inbounds nuw %struct.GistInetKey, ptr %39, i32 0, i32 1
  %41 = load i8, ptr %40, align 1
  %42 = zext i8 %41 to i32
  %43 = icmp eq i32 %38, %42
  br i1 %43, label %44, label %96

44:                                               ; preds = %1
  %45 = load ptr, ptr %6, align 8
  %46 = getelementptr inbounds nuw %struct.GistInetKey, ptr %45, i32 0, i32 2
  %47 = load i8, ptr %46, align 1
  %48 = zext i8 %47 to i32
  %49 = load ptr, ptr %7, align 8
  %50 = getelementptr inbounds nuw %struct.GistInetKey, ptr %49, i32 0, i32 2
  %51 = load i8, ptr %50, align 1
  %52 = zext i8 %51 to i32
  %53 = icmp sle i32 %48, %52
  br i1 %53, label %54, label %93

54:                                               ; preds = %44
  %55 = load ptr, ptr %6, align 8
  %56 = getelementptr inbounds nuw %struct.GistInetKey, ptr %55, i32 0, i32 4
  %57 = getelementptr inbounds [16 x i8], ptr %56, i64 0, i64 0
  %58 = load ptr, ptr %7, align 8
  %59 = getelementptr inbounds nuw %struct.GistInetKey, ptr %58, i32 0, i32 4
  %60 = getelementptr inbounds [16 x i8], ptr %59, i64 0, i64 0
  %61 = load ptr, ptr %6, align 8
  %62 = getelementptr inbounds nuw %struct.GistInetKey, ptr %61, i32 0, i32 3
  %63 = load i8, ptr %62, align 1
  %64 = zext i8 %63 to i32
  %65 = load ptr, ptr %7, align 8
  %66 = getelementptr inbounds nuw %struct.GistInetKey, ptr %65, i32 0, i32 3
  %67 = load i8, ptr %66, align 1
  %68 = zext i8 %67 to i32
  %69 = icmp slt i32 %64, %68
  br i1 %69, label %70, label %75

70:                                               ; preds = %54
  %71 = load ptr, ptr %6, align 8
  %72 = getelementptr inbounds nuw %struct.GistInetKey, ptr %71, i32 0, i32 3
  %73 = load i8, ptr %72, align 1
  %74 = zext i8 %73 to i32
  br label %80

75:                                               ; preds = %54
  %76 = load ptr, ptr %7, align 8
  %77 = getelementptr inbounds nuw %struct.GistInetKey, ptr %76, i32 0, i32 3
  %78 = load i8, ptr %77, align 1
  %79 = zext i8 %78 to i32
  br label %80

80:                                               ; preds = %75, %70
  %81 = phi i32 [ %74, %70 ], [ %79, %75 ]
  %82 = call i32 @bitncommon(ptr noundef %57, ptr noundef %60, i32 noundef %81)
  store i32 %82, ptr %8, align 4
  %83 = load i32, ptr %8, align 4
  %84 = icmp sgt i32 %83, 0
  br i1 %84, label %85, label %90

85:                                               ; preds = %80
  %86 = load i32, ptr %8, align 4
  %87 = sitofp i32 %86 to float
  %88 = fdiv float 1.000000e+00, %87
  %89 = load ptr, ptr %5, align 8
  store float %88, ptr %89, align 4
  br label %92

90:                                               ; preds = %80
  %91 = load ptr, ptr %5, align 8
  store float 2.000000e+00, ptr %91, align 4
  br label %92

92:                                               ; preds = %90, %85
  br label %95

93:                                               ; preds = %44
  %94 = load ptr, ptr %5, align 8
  store float 3.000000e+00, ptr %94, align 4
  br label %95

95:                                               ; preds = %93, %92
  br label %98

96:                                               ; preds = %1
  %97 = load ptr, ptr %5, align 8
  store float 4.000000e+00, ptr %97, align 4
  br label %98

98:                                               ; preds = %96, %95
  %99 = load ptr, ptr %5, align 8
  %100 = call i64 @PointerGetDatum(ptr noundef %99)
  call void @llvm.lifetime.end.p0(i64 4, ptr %8) #7
  call void @llvm.lifetime.end.p0(i64 8, ptr %7) #7
  call void @llvm.lifetime.end.p0(i64 8, ptr %6) #7
  call void @llvm.lifetime.end.p0(i64 8, ptr %5) #7
  call void @llvm.lifetime.end.p0(i64 8, ptr %4) #7
  call void @llvm.lifetime.end.p0(i64 8, ptr %3) #7
  ret i64 %100
}