; Function Attrs: nounwind uwtable
define dso_local i64 @inet_gist_penalty(ptr noundef readonly captures(none) %0) local_unnamed_addr #0 {
  %2 = getelementptr inbounds nuw i8, ptr %0, i64 32
  %3 = load i64, ptr %2, align 8
  %4 = inttoptr i64 %3 to ptr
  %5 = getelementptr inbounds nuw i8, ptr %0, i64 48
  %6 = load i64, ptr %5, align 8
  %7 = inttoptr i64 %6 to ptr
  %8 = getelementptr inbounds nuw i8, ptr %0, i64 64
  %9 = load i64, ptr %8, align 8
  %10 = load i64, ptr %4, align 8
  %11 = inttoptr i64 %10 to ptr
  %12 = load i64, ptr %7, align 8
  %13 = inttoptr i64 %12 to ptr
  %14 = getelementptr inbounds nuw i8, ptr %11, i64 1
  %15 = load i8, ptr %14, align 1
  %16 = getelementptr inbounds nuw i8, ptr %13, i64 1
  %17 = load i8, ptr %16, align 1
  %18 = icmp eq i8 %15, %17
  br i1 %18, label %19, label %37

19:                                               ; preds = %1
  %20 = getelementptr inbounds nuw i8, ptr %11, i64 2
  %21 = load i8, ptr %20, align 1
  %22 = getelementptr inbounds nuw i8, ptr %13, i64 2
  %23 = load i8, ptr %22, align 1
  %.not = icmp ugt i8 %21, %23
  br i1 %.not, label %37, label %24

24:                                               ; preds = %19
  %25 = getelementptr inbounds nuw i8, ptr %11, i64 4
  %26 = getelementptr inbounds nuw i8, ptr %13, i64 4
  %27 = getelementptr inbounds nuw i8, ptr %11, i64 3
  %28 = load i8, ptr %27, align 1
  %29 = getelementptr inbounds nuw i8, ptr %13, i64 3
  %30 = load i8, ptr %29, align 1
  %. = tail call i8 @llvm.umin.i8(i8 %28, i8 %30)
  %31 = zext i8 %. to i32
  %32 = tail call i32 @bitncommon(ptr noundef nonnull %25, ptr noundef nonnull %26, i32 noundef %31) #8
  %33 = icmp sgt i32 %32, 0
  br i1 %33, label %34, label %37

34:                                               ; preds = %24
  %35 = uitofp nneg i32 %32 to float
  %36 = fdiv float 1.000000e+00, %35
  br label %37

37:                                               ; preds = %1, %19, %24, %34
  %.sink = phi float [ %36, %34 ], [ 2.000000e+00, %24 ], [ 3.000000e+00, %19 ], [ 4.000000e+00, %1 ]
  %38 = inttoptr i64 %9 to ptr
  store float %.sink, ptr %38, align 4
  ret i64 %9
}